; Function Attrs: mustprogress noreturn uwtable
define void @_ZN10duckdb_fmt2v68internal13error_handler8on_errorENSt7__cxx1112basic_stringIcSt11char_traitsIcESaIcEEE(ptr nonnull readnone align 1 captures(none) %0, ptr noundef %1) local_unnamed_addr #7 align 2 personality ptr @__gxx_personality_v0 {
  %3 = tail call ptr @__cxa_allocate_exception(i64 16) #25
  invoke void @_ZN6duckdb21InvalidInputExceptionC1ERKNSt7__cxx1112basic_stringIcSt11char_traitsIcESaIcEEE(ptr noundef nonnull align 8 dereferenceable(16) %3, ptr noundef nonnull align 8 dereferenceable(32) %1)
          to label %4 unwind label %5

4:                                                ; preds = %2
  tail call void @__cxa_throw(ptr nonnull %3, ptr nonnull @_ZTIN6duckdb21InvalidInputExceptionE, ptr nonnull @_ZNSt13runtime_errorD2Ev) #29
  unreachable

5:                                                ; preds = %2
  %6 = landingpad { ptr, i32 }
          cleanup
  tail call void @__cxa_free_exception(ptr nonnull %3) #25
  resume { ptr, i32 } %6
}